target datalayout = "e-m:e-p270:32:32-p271:32:32-p272:64:64-i64:64-i128:128-f80:128-n8:16:32:64-S128"
target triple = "x86_64-unknown-linux-gnu"

%"class.v8::IndirectHandleBase" = type { ptr }
%"class.v8::Local" = type { %"class.v8::LocalBase" }
%"class.v8::LocalBase" = type { %"class.v8::IndirectHandleBase" }
%"class.v8::LocalBase.342" = type { %"class.v8::IndirectHandleBase" }
%"class.v8::Local.341" = type { %"class.v8::LocalBase.342" }
%"class.v8::FunctionCallbackInfo" = type <{ ptr, ptr, i32, [4 x i8] }>
%"class.v8::Local.259" = type { %"class.v8::LocalBase.260" }
%"class.v8::LocalBase.260" = type { %"class.v8::IndirectHandleBase" }
%"class.node::MemoryRetainer" = type { ptr }
%"struct.std::__detail::_Hash_node_base" = type { ptr }
%"struct.std::__detail::_Prime_rehash_policy" = type { float, i64 }
%"class.v8::Global.17" = type { %"class.v8::PersistentBase.18" }
%"class.v8::PersistentBase.18" = type { %"class.v8::IndirectHandleBase" }
%"class.std::vector.96" = type { %"struct.std::_Vector_base.97" }
%"struct.std::_Vector_base.97" = type { %"struct.std::_Vector_base<std::__cxx11::basic_string<char>, std::allocator<std::__cxx11::basic_string<char>>>::_Vector_impl" }
%"struct.std::_Vector_base<std::__cxx11::basic_string<char>, std::allocator<std::__cxx11::basic_string<char>>>::_Vector_impl" = type { %"struct.std::_Vector_base<std::__cxx11::basic_string<char>, std::allocator<std::__cxx11::basic_string<char>>>::_Vector_impl_data" }
%"struct.std::_Vector_base<std::__cxx11::basic_string<char>, std::allocator<std::__cxx11::basic_string<char>>>::_Vector_impl_data" = type { ptr, ptr, ptr }
%"class.node::CleanupQueue" = type { %"class.node::MemoryRetainer", %"class.std::unordered_set.184", i64 }
%"class.std::unordered_set.184" = type { %"class.std::_Hashtable.185" }
%"class.std::_Hashtable.185" = type { ptr, i64, %"struct.std::__detail::_Hash_node_base", i64, %"struct.std::__detail::_Prime_rehash_policy", ptr }
%"class.node::BaseObject" = type { %"class.node::MemoryRetainer", %"class.v8::Global.257", ptr, ptr }
%"class.v8::Global.257" = type { %"class.v8::PersistentBase.258" }
%"class.v8::PersistentBase.258" = type { %"class.v8::IndirectHandleBase" }
%"class.v8::Maybe" = type { i8, i64 }
%"class.node::Realm" = type { %"class.node::MemoryRetainer", %"class.std::set", %"class.std::set.265", %"class.std::set.265", %"class.std::vector.96", ptr, ptr, %"class.v8::Global.273", %"class.v8::Global.17", %"class.v8::Global.17", %"class.v8::Global.17", %"class.v8::Global.257", %"class.v8::Global.17", %"class.v8::Global.17", %"class.v8::Global.17", %"class.v8::Global.257", %"class.v8::Global.17", %"class.v8::Global.17", %"class.v8::Global.17", %"class.v8::Global.17", %"class.v8::Global.17", %"class.v8::Global.17", %"class.v8::Global.17", %"class.v8::Global.17", %"class.v8::Global.17", %"class.v8::Global.17", %"class.v8::Global.17", %"class.v8::Global.17", %"class.v8::Global.17", %"class.v8::Global.17", %"class.v8::Global.17", %"class.v8::Global.17", %"class.v8::Global.17", %"class.v8::Global.17", %"class.v8::Global.17", %"class.v8::Global.17", %"class.v8::Global.17", %"class.v8::Global.17", %"class.v8::Global.17", %"class.v8::Global.17", %"class.v8::Global.17", %"class.v8::Global.17", %"class.v8::Global.17", %"class.v8::Global.17", %"class.v8::Global.257", %"class.v8::Global.17", %"class.v8::Global.17", %"class.v8::Global.17", %"class.v8::Global.257", %"class.v8::Global.257", %"class.v8::Global.257", %"class.v8::Global.257", %"class.v8::Global.257", %"class.v8::Global.257", %"class.v8::Global.17", %"class.v8::Global.17", %"class.v8::Global.17", %"class.v8::Global.17", %"class.v8::Global.17", %"class.v8::Global.17", %"class.v8::Global.17", %"class.v8::Global.17", %"class.v8::Global.17", %"class.v8::Global.17", %"class.v8::Global.17", %"class.v8::Global.17", %"class.v8::Global.17", %"class.v8::Global.17", i32, i8, i64, i64, %"struct.std::array.275", %"class.node::CleanupQueue" }
%"class.std::set" = type { %"class.std::_Rb_tree" }
%"class.std::_Rb_tree" = type { %"struct.std::_Rb_tree<node::node_module *, node::node_module *, std::_Identity<node::node_module *>, std::less<node::node_module *>>::_Rb_tree_impl" }
%"struct.std::_Rb_tree<node::node_module *, node::node_module *, std::_Identity<node::node_module *>, std::less<node::node_module *>>::_Rb_tree_impl" = type { %"struct.std::_Rb_tree_key_compare", %"struct.std::_Rb_tree_header" }
%"struct.std::_Rb_tree_key_compare" = type { %"struct.std::less" }
%"struct.std::less" = type { i8 }
%"struct.std::_Rb_tree_header" = type { %"struct.std::_Rb_tree_node_base", i64 }
%"struct.std::_Rb_tree_node_base" = type { i32, ptr, ptr, ptr }
%"class.std::set.265" = type { %"class.std::_Rb_tree.266" }
%"class.std::_Rb_tree.266" = type { %"struct.std::_Rb_tree<std::__cxx11::basic_string<char>, std::__cxx11::basic_string<char>, std::_Identity<std::__cxx11::basic_string<char>>, std::less<std::__cxx11::basic_string<char>>>::_Rb_tree_impl" }
%"struct.std::_Rb_tree<std::__cxx11::basic_string<char>, std::__cxx11::basic_string<char>, std::_Identity<std::__cxx11::basic_string<char>>, std::less<std::__cxx11::basic_string<char>>>::_Rb_tree_impl" = type { %"struct.std::_Rb_tree_key_compare.270", %"struct.std::_Rb_tree_header" }
%"struct.std::_Rb_tree_key_compare.270" = type { %"struct.std::less.271" }
%"struct.std::less.271" = type { i8 }
%"class.v8::Global.273" = type { %"class.v8::PersistentBase.274" }
%"class.v8::PersistentBase.274" = type { %"class.v8::IndirectHandleBase" }
%"struct.std::array.275" = type { [12 x %"class.node::BaseObjectPtrImpl"] }
%"class.node::BaseObjectPtrImpl" = type { %union.anon.276 }
%union.anon.276 = type { ptr }

; Function Attrs: mustprogress nounwind uwtable
define linkonce_odr dso_local noundef ptr @_ZNK4node5Realm3envEv(ptr noundef nonnull align 8 dereferenceable(872) %this) #4 comdat align 2 {
entry:
  %this.addr = alloca ptr, align 8
  store ptr %this, ptr %this.addr, align 8
  %this1 = load ptr, ptr %this.addr, align 8
  %env_ = getelementptr inbounds %"class.node::Realm", ptr %this1, i32 0, i32 5
  %0 = load ptr, ptr %env_, align 8
  ret ptr %0
}

; Function Attrs: mustprogress nounwind uwtable
define linkonce_odr dso_local noundef ptr @_ZNK4node10BaseObject3envEv(ptr noundef nonnull align 8 dereferenceable(32) %this) #4 comdat align 2 {
entry:
  %this.addr = alloca ptr, align 8
  store ptr %this, ptr %this.addr, align 8
  %this1 = load ptr, ptr %this.addr, align 8
  %realm_ = getelementptr inbounds %"class.node::BaseObject", ptr %this1, i32 0, i32 2
  %0 = load ptr, ptr %realm_, align 8
  %call = call noundef ptr @_ZNK4node5Realm3envEv(ptr noundef nonnull align 8 dereferenceable(872) %0)
  ret ptr %call
}

; Function Attrs: mustprogress nounwind uwtable
define dso_local void @_ZN4node6timers11BindingData17ScheduleTimerImplEPS1_l(ptr noundef %data, i64 noundef %duration) #4 align 2 {
entry:
  %data.addr = alloca ptr, align 8
  %duration.addr = alloca i64, align 8
  store ptr %data, ptr %data.addr, align 8
  store i64 %duration, ptr %duration.addr, align 8
  %0 = load ptr, ptr %data.addr, align 8
  %call = call noundef ptr @_ZNK4node10BaseObject3envEv(ptr noundef nonnull align 8 dereferenceable(32) %0)
  %1 = load i64, ptr %duration.addr, align 8
  call void @_ZN4node11Environment13ScheduleTimerEl(ptr noundef nonnull align 8 dereferenceable(2872) %call, i64 noundef %1)
  ret void
}

; Function Attrs: mustprogress nounwind uwtable
define dso_local void @_ZN4node6timers11BindingData17SlowScheduleTimerERKN2v820FunctionCallbackInfoINS2_5ValueEEE(ptr noundef nonnull align 8 dereferenceable(20) %args) #4 align 2 {
entry:
  %this.addr.i64 = alloca ptr, align 8
  %slot.addr.i63 = alloca ptr, align 8
  %this.addr.i.i59 = alloca ptr, align 8
  %this.addr.i60 = alloca ptr, align 8
  %this.addr.i.i = alloca ptr, align 8
  %location.addr.i.i = alloca ptr, align 8
  %this.addr.i56 = alloca ptr, align 8
  %location.addr.i57 = alloca ptr, align 8
  %this.addr.i53 = alloca ptr, align 8
  %other.addr.i54 = alloca ptr, align 8
  %retval.i51 = alloca %"class.v8::LocalBase", align 8
  %slot.addr.i52 = alloca ptr, align 8
  %this.addr.i48 = alloca ptr, align 8
  %other.addr.i49 = alloca ptr, align 8
  %this.addr.i45 = alloca ptr, align 8
  %location.addr.i46 = alloca ptr, align 8
  %this.addr.i43 = alloca ptr, align 8
  %location.addr.i = alloca ptr, align 8
  %this.addr.i41 = alloca ptr, align 8
  %other.addr.i = alloca ptr, align 8
  %retval.i39 = alloca %"class.v8::LocalBase.342", align 8
  %slot.addr.i40 = alloca ptr, align 8
  %retval.i35 = alloca %"class.v8::Local.341", align 8
  %slot.addr.i36 = alloca ptr, align 8
  %ref.tmp.i37 = alloca %"class.v8::LocalBase.342", align 8
  %isolate.addr.i34 = alloca ptr, align 8
  %index.addr.i = alloca i32, align 4
  %addr.i = alloca i64, align 8
  %isolate.addr.i33 = alloca ptr, align 8
  %retval.i31 = alloca %"class.v8::Local", align 8
  %slot.addr.i = alloca ptr, align 8
  %ref.tmp.i = alloca %"class.v8::LocalBase", align 8
  %that.i = alloca %"class.v8::Local.341", align 8
  %this.addr.i30 = alloca ptr, align 8
  %retval.i28 = alloca %"class.v8::Local.341", align 8
  %isolate.addr.i = alloca ptr, align 8
  %slot.i = alloca ptr, align 8
  %this.addr.i24 = alloca ptr, align 8
  %this.addr.i21 = alloca ptr, align 8
  %this.addr.i19 = alloca ptr, align 8
  %this.addr.i16 = alloca ptr, align 8
  %retval.i = alloca %"class.v8::Local", align 8
  %this.addr.i = alloca ptr, align 8
  %i.addr.i = alloca i32, align 4
  %agg.tmp.i = alloca %"class.v8::Local.341", align 8
  %args.addr = alloca ptr, align 8
  %duration = alloca i64, align 8
  %ref.tmp = alloca %"class.v8::Maybe", align 8
  %ref.tmp1 = alloca %"class.v8::Local", align 8
  %agg.tmp = alloca %"class.v8::Local.259", align 8
  store ptr %args, ptr %args.addr, align 8
  %0 = load ptr, ptr %args.addr, align 8
  store ptr %0, ptr %this.addr.i, align 8
  store i32 0, ptr %i.addr.i, align 4
  %this1.i = load ptr, ptr %this.addr.i, align 8
  %1 = load i32, ptr %i.addr.i, align 4
  %cmp.i = icmp slt i32 %1, 0
  br i1 %cmp.i, label %if.then.i, label %lor.lhs.false.i

lor.lhs.false.i:                                  ; preds = %entry
  %length_.i = getelementptr inbounds %"class.v8::FunctionCallbackInfo", ptr %this1.i, i32 0, i32 2
  %2 = load i32, ptr %length_.i, align 8
  %3 = load i32, ptr %i.addr.i, align 4
  %cmp2.i = icmp sle i32 %2, %3
  br i1 %cmp2.i, label %if.then.i, label %if.end.i

if.then.i:                                        ; preds = %lor.lhs.false.i, %entry
  store ptr %this1.i, ptr %this.addr.i19, align 8
  %this1.i20 = load ptr, ptr %this.addr.i19, align 8
  %4 = load ptr, ptr %this1.i20, align 8
  %arrayidx.i = getelementptr inbounds i64, ptr %4, i64 1
  %5 = load ptr, ptr %arrayidx.i, align 8
  store ptr %5, ptr %isolate.addr.i, align 8
  %6 = load ptr, ptr %isolate.addr.i, align 8
  store ptr %6, ptr %isolate.addr.i33, align 8
  %7 = load ptr, ptr %isolate.addr.i, align 8
  store ptr %7, ptr %isolate.addr.i34, align 8
  store i32 4, ptr %index.addr.i, align 4
  %8 = load ptr, ptr %isolate.addr.i34, align 8
  %9 = ptrtoint ptr %8 to i64
  %add.i = add i64 %9, 576
  %10 = load i32, ptr %index.addr.i, align 4
  %mul.i = mul nsw i32 %10, 8
  %conv.i = sext i32 %mul.i to i64
  %add1.i = add i64 %add.i, %conv.i
  store i64 %add1.i, ptr %addr.i, align 8
  %11 = load i64, ptr %addr.i, align 8
  %12 = inttoptr i64 %11 to ptr
  store ptr %12, ptr %slot.i, align 8
  %13 = load ptr, ptr %slot.i, align 8
  store ptr %13, ptr %slot.addr.i36, align 8
  %14 = load ptr, ptr %slot.addr.i36, align 8
  store ptr %14, ptr %slot.addr.i40, align 8
  %15 = load ptr, ptr %slot.addr.i40, align 8
  store ptr %retval.i39, ptr %this.addr.i43, align 8
  store ptr %15, ptr %location.addr.i, align 8
  %this1.i44 = load ptr, ptr %this.addr.i43, align 8
  %16 = load ptr, ptr %location.addr.i, align 8
  store ptr %this1.i44, ptr %this.addr.i45, align 8
  store ptr %16, ptr %location.addr.i46, align 8
  %this1.i47 = load ptr, ptr %this.addr.i45, align 8
  %17 = load ptr, ptr %location.addr.i46, align 8
  store ptr %17, ptr %this1.i47, align 8
  %18 = load ptr, ptr %retval.i39, align 8
  store ptr %18, ptr %ref.tmp.i37, align 8
  store ptr %retval.i35, ptr %this.addr.i41, align 8
  store ptr %ref.tmp.i37, ptr %other.addr.i, align 8
  %this1.i42 = load ptr, ptr %this.addr.i41, align 8
  %19 = load ptr, ptr %other.addr.i, align 8
  call void @llvm.memcpy.p0.p0.i64(ptr align 8 %this1.i42, ptr align 8 %19, i64 8, i1 false)
  %20 = load ptr, ptr %retval.i35, align 8
  store ptr %20, ptr %retval.i28, align 8
  %21 = load ptr, ptr %retval.i28, align 8
  store ptr %21, ptr %agg.tmp.i, align 8
  %22 = load ptr, ptr %agg.tmp.i, align 8
  store ptr %22, ptr %that.i, align 8
  store ptr %retval.i, ptr %this.addr.i30, align 8
  %this3.i = load ptr, ptr %this.addr.i30, align 8
  store ptr %this3.i, ptr %this.addr.i48, align 8
  store ptr %that.i, ptr %other.addr.i49, align 8
  %this1.i50 = load ptr, ptr %this.addr.i48, align 8
  %23 = load ptr, ptr %other.addr.i49, align 8
  call void @llvm.memcpy.p0.p0.i64(ptr align 8 %this1.i50, ptr align 8 %23, i64 8, i1 false)
  br label %_ZNK2v820FunctionCallbackInfoINS_5ValueEEixEi.exit

if.end.i:                                         ; preds = %lor.lhs.false.i
  %values_.i = getelementptr inbounds %"class.v8::FunctionCallbackInfo", ptr %this1.i, i32 0, i32 1
  %24 = load ptr, ptr %values_.i, align 8
  %25 = load i32, ptr %i.addr.i, align 4
  %idx.ext.i = sext i32 %25 to i64
  %add.ptr.i = getelementptr inbounds i64, ptr %24, i64 %idx.ext.i
  store ptr %add.ptr.i, ptr %slot.addr.i, align 8
  %26 = load ptr, ptr %slot.addr.i, align 8
  store ptr %26, ptr %slot.addr.i52, align 8
  %27 = load ptr, ptr %slot.addr.i52, align 8
  store ptr %retval.i51, ptr %this.addr.i56, align 8
  store ptr %27, ptr %location.addr.i57, align 8
  %this1.i58 = load ptr, ptr %this.addr.i56, align 8
  %28 = load ptr, ptr %location.addr.i57, align 8
  store ptr %this1.i58, ptr %this.addr.i.i, align 8
  store ptr %28, ptr %location.addr.i.i, align 8
  %this1.i.i = load ptr, ptr %this.addr.i.i, align 8
  %29 = load ptr, ptr %location.addr.i.i, align 8
  store ptr %29, ptr %this1.i.i, align 8
  %30 = load ptr, ptr %retval.i51, align 8
  store ptr %30, ptr %ref.tmp.i, align 8
  store ptr %retval.i31, ptr %this.addr.i53, align 8
  store ptr %ref.tmp.i, ptr %other.addr.i54, align 8
  %this1.i55 = load ptr, ptr %this.addr.i53, align 8
  %31 = load ptr, ptr %other.addr.i54, align 8
  call void @llvm.memcpy.p0.p0.i64(ptr align 8 %this1.i55, ptr align 8 %31, i64 8, i1 false)
  %32 = load ptr, ptr %retval.i31, align 8
  store ptr %32, ptr %retval.i, align 8
  br label %_ZNK2v820FunctionCallbackInfoINS_5ValueEEixEi.exit

_ZNK2v820FunctionCallbackInfoINS_5ValueEEixEi.exit: ; preds = %if.end.i, %if.then.i
  %33 = load ptr, ptr %retval.i, align 8
  %coerce.dive = getelementptr inbounds %"class.v8::Local", ptr %ref.tmp1, i32 0, i32 0
  %coerce.dive2 = getelementptr inbounds %"class.v8::LocalBase", ptr %coerce.dive, i32 0, i32 0
  %coerce.dive3 = getelementptr inbounds %"class.v8::IndirectHandleBase", ptr %coerce.dive2, i32 0, i32 0
  store ptr %33, ptr %coerce.dive3, align 8
  store ptr %ref.tmp1, ptr %this.addr.i16, align 8
  %this1.i17 = load ptr, ptr %this.addr.i16, align 8
  store ptr %this1.i17, ptr %this.addr.i60, align 8
  %this1.i61 = load ptr, ptr %this.addr.i60, align 8
  store ptr %this1.i61, ptr %this.addr.i.i59, align 8
  %this1.i.i62 = load ptr, ptr %this.addr.i.i59, align 8
  %34 = load ptr, ptr %this1.i.i62, align 8
  store ptr %34, ptr %slot.addr.i63, align 8
  %35 = load ptr, ptr %slot.addr.i63, align 8
  %36 = load ptr, ptr %args.addr, align 8
  store ptr %36, ptr %this.addr.i21, align 8
  %this1.i22 = load ptr, ptr %this.addr.i21, align 8
  %37 = load ptr, ptr %this1.i22, align 8
  %arrayidx.i23 = getelementptr inbounds i64, ptr %37, i64 1
  %38 = load ptr, ptr %arrayidx.i23, align 8
  %call6 = call ptr @_ZN2v87Isolate17GetCurrentContextEv(ptr noundef nonnull align 1 dereferenceable(1) %38)
  %coerce.dive7 = getelementptr inbounds %"class.v8::Local.259", ptr %agg.tmp, i32 0, i32 0
  %coerce.dive8 = getelementptr inbounds %"class.v8::LocalBase.260", ptr %coerce.dive7, i32 0, i32 0
  %coerce.dive9 = getelementptr inbounds %"class.v8::IndirectHandleBase", ptr %coerce.dive8, i32 0, i32 0
  store ptr %call6, ptr %coerce.dive9, align 8
  %coerce.dive10 = getelementptr inbounds %"class.v8::Local.259", ptr %agg.tmp, i32 0, i32 0
  %coerce.dive11 = getelementptr inbounds %"class.v8::LocalBase.260", ptr %coerce.dive10, i32 0, i32 0
  %coerce.dive12 = getelementptr inbounds %"class.v8::IndirectHandleBase", ptr %coerce.dive11, i32 0, i32 0
  %39 = load ptr, ptr %coerce.dive12, align 8
  %call13 = call { i8, i64 } @_ZNK2v85Value12IntegerValueENS_5LocalINS_7ContextEEE(ptr noundef nonnull align 1 dereferenceable(1) %35, ptr %39)
  %40 = getelementptr inbounds { i8, i64 }, ptr %ref.tmp, i32 0, i32 0
  %41 = extractvalue { i8, i64 } %call13, 0
  store i8 %41, ptr %40, align 8
  %42 = getelementptr inbounds { i8, i64 }, ptr %ref.tmp, i32 0, i32 1
  %43 = extractvalue { i8, i64 } %call13, 1
  store i64 %43, ptr %42, align 8
  store ptr %ref.tmp, ptr %this.addr.i24, align 8
  %this1.i25 = load ptr, ptr %this.addr.i24, align 8
  store ptr %this1.i25, ptr %this.addr.i64, align 8
  %this1.i65 = load ptr, ptr %this.addr.i64, align 8
  %44 = load i8, ptr %this1.i65, align 8
  %tobool.i = trunc i8 %44 to i1
  %lnot3.i = xor i1 %tobool.i, true
  br i1 %lnot3.i, label %if.then.i27, label %_ZNO2v85MaybeIlE8FromJustEv.exit

if.then.i27:                                      ; preds = %_ZNK2v820FunctionCallbackInfoINS_5ValueEEixEi.exit
  call void @_ZN2v812api_internal17FromJustIsNothingEv() #3
  br label %_ZNO2v85MaybeIlE8FromJustEv.exit

_ZNO2v85MaybeIlE8FromJustEv.exit:                 ; preds = %if.then.i27, %_ZNK2v820FunctionCallbackInfoINS_5ValueEEixEi.exit
  %value_.i = getelementptr inbounds %"class.v8::Maybe", ptr %this1.i25, i32 0, i32 1
  %45 = load i64, ptr %value_.i, align 8
  store i64 %45, ptr %duration, align 8
  %46 = load ptr, ptr %args.addr, align 8
  %call15 = call noundef ptr @_ZN4node5Realm14GetBindingDataINS_6timers11BindingDataEEEPT_RKN2v820FunctionCallbackInfoINS6_5ValueEEE(ptr noundef nonnull align 8 dereferenceable(20) %46)
  %47 = load i64, ptr %duration, align 8
  call void @_ZN4node6timers11BindingData17ScheduleTimerImplEPS1_l(ptr noundef %call15, i64 noundef %47)
  ret void
}