; Function Attrs: mustprogress nounwind uwtable
define dso_local void @_ZN4node6timers11BindingData17SlowScheduleTimerERKN2v820FunctionCallbackInfoINS2_5ValueEEE(ptr noundef nonnull align 8 dereferenceable(20) %args) #3 align 2 {
entry:
  %length_.i = getelementptr inbounds i8, ptr %args, i64 16
  %0 = load i32, ptr %length_.i, align 8
  %cmp2.i = icmp slt i32 %0, 1
  br i1 %cmp2.i, label %if.then.i, label %if.end.i

if.then.i:                                        ; preds = %entry
  %1 = load ptr, ptr %args, align 8
  %arrayidx.i = getelementptr inbounds i8, ptr %1, i64 8
  %2 = load ptr, ptr %arrayidx.i, align 8
  %3 = ptrtoint ptr %2 to i64
  %add1.i = add i64 %3, 608
  %4 = inttoptr i64 %add1.i to ptr
  br label %_ZNK2v820FunctionCallbackInfoINS_5ValueEEixEi.exit

if.end.i:                                         ; preds = %entry
  %values_.i = getelementptr inbounds i8, ptr %args, i64 8
  %5 = load ptr, ptr %values_.i, align 8
  %.pre = load ptr, ptr %args, align 8
  %arrayidx.i23.phi.trans.insert = getelementptr inbounds i8, ptr %.pre, i64 8
  %.pre6 = load ptr, ptr %arrayidx.i23.phi.trans.insert, align 8
  br label %_ZNK2v820FunctionCallbackInfoINS_5ValueEEixEi.exit

_ZNK2v820FunctionCallbackInfoINS_5ValueEEixEi.exit: ; preds = %if.end.i, %if.then.i
  %6 = phi ptr [ %2, %if.then.i ], [ %.pre6, %if.end.i ]
  %retval.i.sroa.0.0 = phi ptr [ %4, %if.then.i ], [ %5, %if.end.i ]
  %call6 = tail call ptr @_ZN2v87Isolate17GetCurrentContextEv(ptr noundef nonnull align 1 dereferenceable(1) %6) #15
  %call13 = tail call { i8, i64 } @_ZNK2v85Value12IntegerValueENS_5LocalINS_7ContextEEE(ptr noundef nonnull align 1 dereferenceable(1) %retval.i.sroa.0.0, ptr %call6) #15
  %7 = extractvalue { i8, i64 } %call13, 0
  %8 = and i8 %7, 1
  %tobool.i.not = icmp eq i8 %8, 0
  br i1 %tobool.i.not, label %if.then.i27, label %_ZNO2v85MaybeIlE8FromJustEv.exit

if.then.i27:                                      ; preds = %_ZNK2v820FunctionCallbackInfoINS_5ValueEEixEi.exit
  tail call void @_ZN2v812api_internal17FromJustIsNothingEv() #15
  br label %_ZNO2v85MaybeIlE8FromJustEv.exit

_ZNO2v85MaybeIlE8FromJustEv.exit:                 ; preds = %if.then.i27, %_ZNK2v820FunctionCallbackInfoINS_5ValueEEixEi.exit
  %9 = extractvalue { i8, i64 } %call13, 1
  %call15 = tail call noundef ptr @_ZN4node5Realm14GetBindingDataINS_6timers11BindingDataEEEPT_RKN2v820FunctionCallbackInfoINS6_5ValueEEE(ptr noundef nonnull align 8 dereferenceable(20) %args)
  %realm_.i.i = getelementptr inbounds i8, ptr %call15, i64 16
  %10 = load ptr, ptr %realm_.i.i, align 8
  %env_.i.i.i = getelementptr inbounds i8, ptr %10, i64 176
  %11 = load ptr, ptr %env_.i.i.i, align 8
  tail call void @_ZN4node11Environment13ScheduleTimerEl(ptr noundef nonnull align 8 dereferenceable(2872) %11, i64 noundef %9) #15
  ret void
}